; Function Attrs: nounwind uwtable
define ptr @l_Lean_MessageData_ofLazyM___lambda__2___boxed(ptr noundef %0, ptr noundef %1) #0 {
  %3 = getelementptr i8, ptr %0, i64 8
  %.val.i = load i64, ptr %3, align 8, !tbaa !13
  %.mask.i = and i64 %.val.i, 9223372036854775807
  %.not.i4 = icmp eq i64 %.mask.i, 0
  br i1 %.not.i4, label %lean_dec.exit15.i, label %lean_dec.exit.i

lean_dec.exit15.i:                                ; preds = %2
  %4 = ptrtoint ptr %1 to i64
  %5 = and i64 %4, 1
  %.not21.i = icmp eq i64 %5, 0
  br i1 %.not21.i, label %6, label %l_Lean_MessageData_ofLazyM___lambda__2.exit

6:                                                ; preds = %lean_dec.exit15.i
  %7 = load i32, ptr %1, align 4, !tbaa !4
  %8 = icmp sgt i32 %7, 1
  br i1 %8, label %9, label %11, !prof !11

9:                                                ; preds = %6
  %10 = add nsw i32 %7, -1
  store i32 %10, ptr %1, align 4, !tbaa !4
  br label %l_Lean_MessageData_ofLazyM___lambda__2.exit

11:                                               ; preds = %6
  %.not.i16.i = icmp eq i32 %7, 0
  br i1 %.not.i16.i, label %l_Lean_MessageData_ofLazyM___lambda__2.exit, label %12

12:                                               ; preds = %11
  tail call void @lean_dec_ref_cold(ptr noundef nonnull %1) #6
  br label %l_Lean_MessageData_ofLazyM___lambda__2.exit

lean_dec.exit.i:                                  ; preds = %2
  %13 = tail call zeroext i8 @l_Array_anyMUnsafe_any___at_Lean_MessageData_ofLazyM___spec__1(ptr noundef %1, ptr noundef nonnull readonly %0, i64 noundef 0, i64 noundef %.mask.i)
  %14 = shl nuw nsw i8 %13, 1
  %15 = or disjoint i8 %14, 1
  %16 = zext nneg i8 %15 to i64
  br label %l_Lean_MessageData_ofLazyM___lambda__2.exit

l_Lean_MessageData_ofLazyM___lambda__2.exit:      ; preds = %lean_dec.exit15.i, %9, %11, %12, %lean_dec.exit.i
  %.0.i = phi i64 [ %16, %lean_dec.exit.i ], [ 1, %12 ], [ 1, %11 ], [ 1, %9 ], [ 1, %lean_dec.exit15.i ]
  %17 = ptrtoint ptr %0 to i64
  %18 = and i64 %17, 1
  %.not = icmp eq i64 %18, 0
  br i1 %.not, label %19, label %lean_dec.exit

19:                                               ; preds = %l_Lean_MessageData_ofLazyM___lambda__2.exit
  %20 = load i32, ptr %0, align 4, !tbaa !4
  %21 = icmp sgt i32 %20, 1
  br i1 %21, label %22, label %24, !prof !11

22:                                               ; preds = %19
  %23 = add nsw i32 %20, -1
  store i32 %23, ptr %0, align 4, !tbaa !4
  br label %lean_dec.exit

24:                                               ; preds = %19
  %.not.i = icmp eq i32 %20, 0
  br i1 %.not.i, label %lean_dec.exit, label %25

25:                                               ; preds = %24
  tail call void @lean_dec_ref_cold(ptr noundef nonnull %0) #6
  br label %lean_dec.exit

lean_dec.exit:                                    ; preds = %25, %24, %22, %l_Lean_MessageData_ofLazyM___lambda__2.exit
  %26 = inttoptr i64 %.0.i to ptr
  ret ptr %26
}